; ModuleID = '35/2418.c'
source_filename = "35/2418.c"
target datalayout = "e-m:e-p270:32:32-p271:32:32-p272:64:64-i64:64-f80:128-n8:16:32:64-S128"
target triple = "x86_64-pc-linux-gnu"

@.str = private unnamed_addr constant [6 x i8] c"%d,%d\00", align 1
@.str.1 = private unnamed_addr constant [3 x i8] c"%d\00", align 1
@.str.2 = private unnamed_addr constant [6 x i8] c"%d+%d\00", align 1
@.str.3 = private unnamed_addr constant [3 x i8] c"No\00", align 1

; Function Attrs: noinline nounwind uwtable
define dso_local i32 @main() #0 {
  %1 = alloca i32, align 4
  %2 = alloca i32, align 4
  %3 = alloca i32, align 4
  %4 = alloca i32, align 4
  %5 = alloca i32, align 4
  %6 = alloca i32, align 4
  %7 = alloca i32, align 4
  %8 = alloca i32, align 4
  %9 = alloca i32, align 4
  %10 = alloca i32, align 4
  %11 = alloca i32, align 4
  %12 = alloca i32, align 4
  %13 = alloca [8 x [8 x i32]], align 16
  store i32 0, i32* %1, align 4
  store i32 0, i32* %12, align 4
  %14 = call i32 (i8*, ...) @__isoc99_scanf(i8* getelementptr inbounds ([6 x i8], [6 x i8]* @.str, i64 0, i64 0), i32* %3, i32* %2)
  store i32 0, i32* %4, align 4
  br label %15

15:                                               ; preds = %36, %0
  %16 = load i32, i32* %4, align 4
  %17 = load i32, i32* %3, align 4
  %18 = icmp slt i32 %16, %17
  br i1 %18, label %19, label %39

19:                                               ; preds = %15
  store i32 0, i32* %5, align 4
  br label %20

20:                                               ; preds = %32, %19
  %21 = load i32, i32* %5, align 4
  %22 = load i32, i32* %2, align 4
  %23 = icmp slt i32 %21, %22
  br i1 %23, label %24, label %35

24:                                               ; preds = %20
  %25 = load i32, i32* %4, align 4
  %26 = sext i32 %25 to i64
  %27 = getelementptr inbounds [8 x [8 x i32]], [8 x [8 x i32]]* %13, i64 0, i64 %26
  %28 = load i32, i32* %5, align 4
  %29 = sext i32 %28 to i64
  %30 = getelementptr inbounds [8 x i32], [8 x i32]* %27, i64 0, i64 %29
  %31 = call i32 (i8*, ...) @__isoc99_scanf(i8* getelementptr inbounds ([3 x i8], [3 x i8]* @.str.1, i64 0, i64 0), i32* %30)
  br label %32

32:                                               ; preds = %24
  %33 = load i32, i32* %5, align 4
  %34 = add nsw i32 %33, 1
  store i32 %34, i32* %5, align 4
  br label %20

35:                                               ; preds = %20
  br label %36

36:                                               ; preds = %35
  %37 = load i32, i32* %4, align 4
  %38 = add nsw i32 %37, 1
  store i32 %38, i32* %4, align 4
  br label %15

39:                                               ; preds = %15
  store i32 0, i32* %4, align 4
  br label %40

40:                                               ; preds = %127, %39
  %41 = load i32, i32* %4, align 4
  %42 = load i32, i32* %3, align 4
  %43 = icmp slt i32 %41, %42
  br i1 %43, label %44, label %130

44:                                               ; preds = %40
  store i32 0, i32* %5, align 4
  br label %45

45:                                               ; preds = %123, %44
  %46 = load i32, i32* %5, align 4
  %47 = load i32, i32* %2, align 4
  %48 = icmp slt i32 %46, %47
  br i1 %48, label %49, label %126

49:                                               ; preds = %45
  store i32 1, i32* %6, align 4
  store i32 1, i32* %10, align 4
  store i32 0, i32* %11, align 4
  br label %50

50:                                               ; preds = %74, %49
  %51 = load i32, i32* %11, align 4
  %52 = load i32, i32* %2, align 4
  %53 = icmp slt i32 %51, %52
  br i1 %53, label %54, label %77

54:                                               ; preds = %50
  %55 = load i32, i32* %4, align 4
  %56 = sext i32 %55 to i64
  %57 = getelementptr inbounds [8 x [8 x i32]], [8 x [8 x i32]]* %13, i64 0, i64 %56
  %58 = load i32, i32* %5, align 4
  %59 = sext i32 %58 to i64
  %60 = getelementptr inbounds [8 x i32], [8 x i32]* %57, i64 0, i64 %59
  %61 = load i32, i32* %60, align 4
  %62 = load i32, i32* %4, align 4
  %63 = sext i32 %62 to i64
  %64 = getelementptr inbounds [8 x [8 x i32]], [8 x [8 x i32]]* %13, i64 0, i64 %63
  %65 = load i32, i32* %11, align 4
  %66 = sext i32 %65 to i64
  %67 = getelementptr inbounds [8 x i32], [8 x i32]* %64, i64 0, i64 %66
  %68 = load i32, i32* %67, align 4
  %69 = icmp sgt i32 %61, %68
  br i1 %69, label %70, label %73

70:                                               ; preds = %54
  %71 = load i32, i32* %6, align 4
  %72 = add nsw i32 %71, 1
  store i32 %72, i32* %6, align 4
  br label %73

73:                                               ; preds = %70, %54
  br label %74

74:                                               ; preds = %73
  %75 = load i32, i32* %11, align 4
  %76 = add nsw i32 %75, 1
  store i32 %76, i32* %11, align 4
  br label %50

77:                                               ; preds = %50
  %78 = load i32, i32* %6, align 4
  %79 = load i32, i32* %2, align 4
  %80 = icmp eq i32 %78, %79
  br i1 %80, label %81, label %122

81:                                               ; preds = %77
  %82 = load i32, i32* %4, align 4
  store i32 %82, i32* %8, align 4
  %83 = load i32, i32* %5, align 4
  store i32 %83, i32* %7, align 4
  store i32 0, i32* %9, align 4
  br label %84

84:                                               ; preds = %108, %81
  %85 = load i32, i32* %9, align 4
  %86 = load i32, i32* %3, align 4
  %87 = icmp slt i32 %85, %86
  br i1 %87, label %88, label %111

88:                                               ; preds = %84
  %89 = load i32, i32* %8, align 4
  %90 = sext i32 %89 to i64
  %91 = getelementptr inbounds [8 x [8 x i32]], [8 x [8 x i32]]* %13, i64 0, i64 %90
  %92 = load i32, i32* %7, align 4
  %93 = sext i32 %92 to i64
  %94 = getelementptr inbounds [8 x i32], [8 x i32]* %91, i64 0, i64 %93
  %95 = load i32, i32* %94, align 4
  %96 = load i32, i32* %9, align 4
  %97 = sext i32 %96 to i64
  %98 = getelementptr inbounds [8 x [8 x i32]], [8 x [8 x i32]]* %13, i64 0, i64 %97
  %99 = load i32, i32* %7, align 4
  %100 = sext i32 %99 to i64
  %101 = getelementptr inbounds [8 x i32], [8 x i32]* %98, i64 0, i64 %100
  %102 = load i32, i32* %101, align 4
  %103 = icmp slt i32 %95, %102
  br i1 %103, label %104, label %107

104:                                              ; preds = %88
  %105 = load i32, i32* %10, align 4
  %106 = add nsw i32 %105, 1
  store i32 %106, i32* %10, align 4
  br label %107

107:                                              ; preds = %104, %88
  br label %108

108:                                              ; preds = %107
  %109 = load i32, i32* %9, align 4
  %110 = add nsw i32 %109, 1
  store i32 %110, i32* %9, align 4
  br label %84

111:                                              ; preds = %84
  %112 = load i32, i32* %10, align 4
  %113 = load i32, i32* %3, align 4
  %114 = icmp eq i32 %112, %113
  br i1 %114, label %115, label %121

115:                                              ; preds = %111
  %116 = load i32, i32* %12, align 4
  %117 = add nsw i32 %116, 1
  store i32 %117, i32* %12, align 4
  %118 = load i32, i32* %8, align 4
  %119 = load i32, i32* %7, align 4
  %120 = call i32 (i8*, ...) @printf(i8* getelementptr inbounds ([6 x i8], [6 x i8]* @.str.2, i64 0, i64 0), i32 %118, i32 %119)
  br label %121

121:                                              ; preds = %115, %111
  br label %122

122:                                              ; preds = %121, %77
  br label %123

123:                                              ; preds = %122
  %124 = load i32, i32* %5, align 4
  %125 = add nsw i32 %124, 1
  store i32 %125, i32* %5, align 4
  br label %45

126:                                              ; preds = %45
  br label %127

127:                                              ; preds = %126
  %128 = load i32, i32* %4, align 4
  %129 = add nsw i32 %128, 1
  store i32 %129, i32* %4, align 4
  br label %40

130:                                              ; preds = %40
  %131 = load i32, i32* %12, align 4
  %132 = icmp eq i32 %131, 0
  br i1 %132, label %133, label %135

133:                                              ; preds = %130
  %134 = call i32 (i8*, ...) @printf(i8* getelementptr inbounds ([3 x i8], [3 x i8]* @.str.3, i64 0, i64 0))
  br label %135

135:                                              ; preds = %133, %130
  ret i32 0
}

declare dso_local i32 @__isoc99_scanf(i8*, ...) #1

declare dso_local i32 @printf(i8*, ...) #1


!llvm.module.flags = !{!0}
!llvm.ident = !{!1}

!0 = !{i32 1, !"wchar_size", i32 4}
!1 = !{!"clang version 10.0.0-4ubuntu1 "}
